; Function Attrs: nounwind uwtable
define dso_local range(i32 -3, 2147483647) i32 @split_cmdline(ptr noundef %0, ptr noundef captures(none) initializes((0, 8)) %1) local_unnamed_addr #0 {
  %3 = tail call ptr @xmalloc(i64 noundef 128) #9
  store ptr %3, ptr %1, align 8, !tbaa !26
  store ptr %0, ptr %3, align 8, !tbaa !18
  %4 = load i8, ptr %0, align 1, !tbaa !14
  %.not129 = icmp eq i8 %4, 0
  br i1 %.not129, label %.thread150, label %.lr.ph

.thread150:                                       ; preds = %2
  %.pre138154 = load ptr, ptr %1, align 8, !tbaa !26
  br label %74

.lr.ph:                                           ; preds = %2, %56
  %5 = phi i8 [ %58, %56 ], [ %4, %2 ]
  %.077134 = phi i8 [ %.2, %56 ], [ 0, %2 ]
  %.078133 = phi i64 [ %.4, %56 ], [ 16, %2 ]
  %.081132 = phi i64 [ %.283, %56 ], [ 1, %2 ]
  %.084131 = phi i64 [ %.286, %56 ], [ 0, %2 ]
  %.087130 = phi i64 [ %.491, %56 ], [ 0, %2 ]
  %.not106 = icmp eq i8 %.077134, 0
  br i1 %.not106, label %6, label %.critedge112

6:                                                ; preds = %.lr.ph
  %7 = zext i8 %5 to i64
  %8 = getelementptr inbounds nuw [256 x i8], ptr @sane_ctype, i64 0, i64 %7
  %9 = load i8, ptr %8, align 1, !tbaa !14
  %10 = and i8 %9, 1
  %.not107 = icmp eq i8 %10, 0
  br i1 %.not107, label %38, label %11

11:                                               ; preds = %6
  %12 = add i64 %.084131, 1
  %13 = getelementptr inbounds nuw i8, ptr %0, i64 %.084131
  store i8 0, ptr %13, align 1, !tbaa !14
  br label %14

14:                                               ; preds = %18, %11
  %.188 = phi i64 [ %.087130, %11 ], [ %15, %18 ]
  %15 = add i64 %.188, 1
  %16 = getelementptr inbounds nuw i8, ptr %0, i64 %15
  %17 = load i8, ptr %16, align 1, !tbaa !14
  %.not108 = icmp eq i8 %17, 0
  br i1 %.not108, label %.critedge, label %18

18:                                               ; preds = %14
  %19 = zext i8 %17 to i64
  %20 = getelementptr inbounds nuw [256 x i8], ptr @sane_ctype, i64 0, i64 %19
  %21 = load i8, ptr %20, align 1, !tbaa !14
  %22 = and i8 %21, 1
  %.not109 = icmp eq i8 %22, 0
  br i1 %.not109, label %.critedge, label %14, !llvm.loop !28

.critedge:                                        ; preds = %18, %14
  %23 = add i64 %.081132, 1
  %24 = icmp ugt i64 %23, %.078133
  br i1 %24, label %25, label %.critedge._crit_edge

.critedge._crit_edge:                             ; preds = %.critedge
  %.pre = load ptr, ptr %1, align 8, !tbaa !26
  br label %34

25:                                               ; preds = %.critedge
  %26 = mul i64 %.078133, 3
  %27 = add i64 %26, 48
  %28 = lshr i64 %27, 1
  %. = tail call i64 @llvm.umax.i64(i64 %28, i64 %23)
  %29 = icmp ugt i64 %., 2305843009213693951
  br i1 %29, label %30, label %st_mult.exit

30:                                               ; preds = %25
  tail call void (ptr, ...) @die(ptr noundef nonnull @.str.1, i64 noundef 8, i64 noundef range(i64 16, 0) %.) #11
  unreachable

st_mult.exit:                                     ; preds = %25
  %31 = load ptr, ptr %1, align 8, !tbaa !26
  %32 = shl nuw i64 %., 3
  %33 = tail call ptr @xrealloc(ptr noundef %31, i64 noundef %32) #9
  store ptr %33, ptr %1, align 8, !tbaa !26
  br label %34

34:                                               ; preds = %.critedge._crit_edge, %st_mult.exit
  %35 = phi ptr [ %33, %st_mult.exit ], [ %.pre, %.critedge._crit_edge ]
  %.280 = phi i64 [ %., %st_mult.exit ], [ %.078133, %.critedge._crit_edge ]
  %36 = getelementptr inbounds nuw i8, ptr %0, i64 %12
  %37 = getelementptr inbounds nuw ptr, ptr %35, i64 %.081132
  store ptr %36, ptr %37, align 8, !tbaa !18
  br label %56

38:                                               ; preds = %6
  switch i8 %5, label %.critedge112 [
    i8 39, label %39
    i8 34, label %39
  ]

39:                                               ; preds = %38, %38
  %40 = add i64 %.087130, 1
  br label %56

.critedge112:                                     ; preds = %.lr.ph, %38
  %41 = icmp eq i8 %5, %.077134
  br i1 %41, label %42, label %44

42:                                               ; preds = %.critedge112
  %43 = add i64 %.087130, 1
  br label %56

44:                                               ; preds = %.critedge112
  %45 = icmp eq i8 %5, 92
  %46 = icmp ne i8 %.077134, 39
  %or.cond5 = and i1 %45, %46
  br i1 %or.cond5, label %47, label %52

47:                                               ; preds = %44
  %48 = add i64 %.087130, 1
  %49 = getelementptr inbounds nuw i8, ptr %0, i64 %48
  %50 = load i8, ptr %49, align 1, !tbaa !14
  %.not110 = icmp eq i8 %50, 0
  br i1 %.not110, label %.thread, label %52

.thread:                                          ; preds = %47
  %51 = load ptr, ptr %1, align 8, !tbaa !26
  tail call void @free(ptr noundef %51) #9
  store ptr null, ptr %1, align 8, !tbaa !26
  br label %78

52:                                               ; preds = %47, %44
  %.390 = phi i64 [ %48, %47 ], [ %.087130, %44 ]
  %.076 = phi i8 [ %50, %47 ], [ %5, %44 ]
  %53 = add i64 %.084131, 1
  %54 = getelementptr inbounds nuw i8, ptr %0, i64 %.084131
  store i8 %.076, ptr %54, align 1, !tbaa !14
  %55 = add i64 %.390, 1
  br label %56

56:                                               ; preds = %34, %42, %52, %39
  %.491 = phi i64 [ %43, %42 ], [ %55, %52 ], [ %40, %39 ], [ %15, %34 ]
  %.286 = phi i64 [ %.084131, %42 ], [ %53, %52 ], [ %.084131, %39 ], [ %12, %34 ]
  %.283 = phi i64 [ %.081132, %42 ], [ %.081132, %52 ], [ %.081132, %39 ], [ %23, %34 ]
  %.4 = phi i64 [ %.078133, %42 ], [ %.078133, %52 ], [ %.078133, %39 ], [ %.280, %34 ]
  %.2 = phi i8 [ 0, %42 ], [ %.077134, %52 ], [ %5, %39 ], [ 0, %34 ]
  %57 = getelementptr inbounds nuw i8, ptr %0, i64 %.491
  %58 = load i8, ptr %57, align 1, !tbaa !14
  %.not = icmp eq i8 %58, 0
  br i1 %.not, label %._crit_edge, label %.lr.ph, !llvm.loop !29

._crit_edge:                                      ; preds = %56
  %59 = icmp eq i8 %.2, 0
  %60 = getelementptr inbounds nuw i8, ptr %0, i64 %.286
  store i8 0, ptr %60, align 1, !tbaa !14
  br i1 %59, label %63, label %61

61:                                               ; preds = %._crit_edge
  %62 = load ptr, ptr %1, align 8, !tbaa !26
  tail call void @free(ptr noundef %62) #9
  store ptr null, ptr %1, align 8, !tbaa !26
  br label %78

63:                                               ; preds = %._crit_edge
  %64 = icmp ugt i64 %.283, 2147483646
  br i1 %64, label %65, label %67

65:                                               ; preds = %63
  %66 = load ptr, ptr %1, align 8, !tbaa !26
  tail call void @free(ptr noundef %66) #9
  store ptr null, ptr %1, align 8, !tbaa !26
  br label %78

67:                                               ; preds = %63
  %.not104 = icmp ult i64 %.283, %.4
  %.pre138 = load ptr, ptr %1, align 8, !tbaa !26
  br i1 %.not104, label %74, label %st_mult.exit114

st_mult.exit114:                                  ; preds = %67
  %68 = add nuw nsw i64 %.283, 1
  %69 = mul nuw nsw i64 %.4, 3
  %70 = add nuw nsw i64 %69, 48
  %71 = lshr i64 %70, 1
  %.not105 = icmp samesign ugt i64 %71, %.283
  %.113 = select i1 %.not105, i64 %71, i64 %68
  %72 = shl nuw nsw i64 %.113, 3
  %73 = tail call ptr @xrealloc(ptr noundef %.pre138, i64 noundef %72) #9
  store ptr %73, ptr %1, align 8, !tbaa !26
  br label %74

74:                                               ; preds = %.thread150, %st_mult.exit114, %67
  %.081.lcssa143149155 = phi i64 [ %.283, %st_mult.exit114 ], [ %.283, %67 ], [ 1, %.thread150 ]
  %75 = phi ptr [ %73, %st_mult.exit114 ], [ %.pre138, %67 ], [ %.pre138154, %.thread150 ]
  %76 = getelementptr inbounds nuw ptr, ptr %75, i64 %.081.lcssa143149155
  store ptr null, ptr %76, align 8, !tbaa !18
  %77 = trunc nuw nsw i64 %.081.lcssa143149155 to i32
  br label %78

78:                                               ; preds = %.thread, %74, %65, %61
  %.294 = phi i32 [ -2, %61 ], [ -3, %65 ], [ %77, %74 ], [ -1, %.thread ]
  ret i32 %.294
}